
 Start         Length     Name                   Class
 0002:00000000 00009A000H UPX0                   BSS
 0003:00000000 00001D000H UPX1                   DATA
 0004:00000000 000001000H .rsrc                  DATA


  Address         Publics by Value

 0001:00000060       j_CloseHandle_0
 0001:00000068       j_CreateFileA_0
 0001:00000070       j_GetFileType
 0001:00000078       j_GetFileSize
 0001:00000080       j_GetStdHandle
 0001:00000090       j_ReadFile_0
 0001:000000A0       j_SetEndOfFile
 0001:000000A8       j_SetFilePointer_0
 0001:000000B0       j_UnhandledExceptionFilter
 0001:000000B8       j_WriteFile
 0001:000000C0       j_CharNextA
 0001:000000C8       j_ExitProcess
 0001:000000D0       j_MessageBoxA
 0001:000000D8       j_FindClose
 0001:000000E0       j_FindFirstFileA
 0001:000000E8       j_FreeLibrary
 0001:000000F0       j_GetCommandLineA
 0001:000000F8       j_GetLastError_0
 0001:00000100       j_GetLocaleInfoA
 0001:00000108       j_GetModuleFileNameA
 0001:00000110       j_GetModuleHandleA
 0001:00000118       j_GetProcAddress
 0001:00000120       j_GetStartupInfoA
 0001:00000128       j_GetThreadLocale
 0001:00000130       j_LoadLibraryExA
 0001:00000138       j_LoadStringA
 0001:00000140       j_lstrcpynA
 0001:00000148       j_lstrlenA
 0001:00000150       j_RegCloseKey
 0001:00000158       j_RegOpenKeyExA
 0001:00000160       j_RegQueryValueExA
 0001:00000168       j_WideCharToMultiByte
 0001:00000170       j_SysFreeString
 0001:00000178       j_GetCurrentThreadId
 0001:00000180       j_GetVersion
 0001:00000188       GetCmdShow
 0001:000001AC       j_LocalAlloc
 0001:000001B4       j_LocalFree
 0001:000001BC       j_VirtualAlloc
 0001:000001C4       j_VirtualFree
 0001:000001CC       j_InitializeCriticalSection
 0001:000001D4       j_EnterCriticalSection
 0001:000001DC       j_LeaveCriticalSection
 0001:000001E4       j_DeleteCriticalSection
 0001:00001558       @System@@FreeMem$qqrpv
 0001:00001578       @System@@ReallocMem$qqrrpvi
 0001:0000157C       IOResult
 0001:000015B0       MkDir
 0001:0000162C       @System@@_IOTest$qqrv
 0001:00001634       ParamStr
 0001:0000164C       @System@SetInOutRes$qqri
 0001:0000165C       @System@IOResult$qqrv
 0001:0000167C       @System@Move$qqrpxvpvi
 0001:00001680       TextIn
 0001:00001868       @System@@ROUND$qqrv
 0001:000018CC       @System@@RewritText$qqrr15System@TTextRec
 0001:00001B78       @System@Flush$qqrrpv
 0001:00001B84       @System@@Flush$qqrr15System@TTextRec
 0001:00001B90       @System@@Close$qqrr15System@TTextRec
 0001:00001BC8       @FillChar
 0001:00001BE8       @System@@FillChar$qqrpvic
 0001:00001C08       @System@@ValLong$qqrx17System@AnsiStringri
 0001:00001C50       @SetEq
 0001:00001C64       @SetLe
 0001:00001C74       @SetIntersect
 0001:00001C98       @SetUnion
 0001:00001CA4       @SetUnion3
 0001:00001CBC       @SetSub
 0001:00001CCC       @SetSub3
 0001:00001D74       @Str2Ext
 0001:00001E70       @System@@SetEq$qqrv
 0001:00001E84       j_@System@@Pow10$qqrv
 0001:00001E8C       @System@@Pow10$qqrv
 0001:00001EAC       TObject.ClassParent
 0001:00001EB8       TObject.NewInstance
 0001:00001F10       TObject.Destroy
 0001:00002170       j_GetKeyboardType
 0001:000021A8       @ClassCreate
 0001:00002220       NotifyReRaise
 0001:00002240       aSoftwareBorlan
 0001:0000225C       aFpumaskvalue
 0001:00002278       @System@TObject@ClassName$qqrp17System@TMetaClass
 0001:00002284       CheckJmp
 0001:000022A8       @System@TObject@FreeInstance$qqrv
 0001:000022B4       NotifyUnhandled
 0001:000022BC       @System@TObject@InstanceSize$qqrp17System@TMetaClass
 0001:000022C4       @System@TObject@$bctr$qqrv
 0001:000022D4       @HandleAnyException
 0001:000022E4       @System@TObject@$bdtr$qqrv
 0001:000022F4       @System@TObject@Free$qqrv
 0001:00002300       @System@TObject@InitInstance$qqrp17System@TMetaClasspv
 0001:00002358       @System@TObject@CleanupInstance$qqrv
 0001:00002378       @System@@IsClass$qqrp14System@TObjectp17System@TMetaClass
 0001:000023CC       @System@TObject@InheritsFrom$qqrp17System@TMetaClasst1
 0001:000023E0       @System@TObject@SafeCallException$qqrp14System@TObjectpv
 0001:000023E8       nullsub_6
 0001:000023EC       nullsub_4
 0001:000023F0       nullsub_5
 0001:000023F4       @System@TObject@Dispatch$qqrpv
 0001:0000241C       @System@@ClassCreate$qqrp17System@TMetaClasso
 0001:00002445       j_@System@@HandleAnyException$qqrv
 0001:0000246C       @System@@ClassDestroy$qqrp14System@TObject
 0001:00002474       @System@@AfterConstruction$qqrp14System@TObject
 0001:00002484       @System@@BeforeDestruction$qqrp14System@TObjectzc
 0001:00002584       @System@@HandleAnyException$qqrv
 0001:000025EC       SetExceptionHandler
 0001:00002634       FinalizeUnits
 0001:000026B0       @System@@HandleFinally$qqrv
 0001:000026E8       @System@@RaiseExcept$qqrv
 0001:000026EC       @InitImports
 0001:00002710       @System@@RaiseAgain$qqrv
 0001:00002764       @System@@DoneExcept$qqrv
 0001:00002794       @System@@TryFinallyExit$qqrv
 0001:000029F4       @System@@StartExe$qqrp23System@PackageInfoTablep17System@TLibModule
 0001:00002A34       @System@@InitResStringImports$qqrv
 0001:00002A58       @LStrFromString
 0001:00002A5C       @System@@InitImports$qqrv
 0001:00002A64       @LStrFromArray
 0001:00002A7C       @LStrFromWArray
 0001:00002C88       @System@@LStrClr$qqrpv
 0001:00002CAC       @System@@LStrArrayClr$qqrpvi
 0001:00002CDC       @System@@LStrAsg$qqrpvpxv
 0001:00002CF0       @LStrInsert
 0001:00002D20       @System@@LStrLAsg$qqrpvpxv
 0001:00002D4C       @System@@NewAnsiString$qqri
 0001:00002D78       @System@@LStrFromPCharLen$qqrr17System@AnsiStringpci
 0001:00002D94       @LStrSetLength
 0001:00002DC8       @System@@LStrFromPWCharLen$qqrr17System@AnsiStringpbi
 0001:00002E08       @Write0LString
 0001:00002E38       @WriteWString
 0001:00002E54       @System@@LStrFromChar$qqrr17System@AnsiStringc
 0001:00002E64       @System@@LStrFromPChar$qqrr17System@AnsiStringpc
 0001:00002ED0       @System@@LStrFromArray$qqrr17System@AnsiStringpci
 0001:00002EE8       @System@@LStrFromWStr$qqrr17System@AnsiStringx17System@WideString
 0001:00002EEC       @WriteWChar
 0001:00002F04       @System@@LStrCat$qqrv
 0001:00002F48       @System@@LStrCat3$qqrv
 0001:00002FB4       WStrSet
 0001:00002FBC       @System@@LStrCatN$qqrv
 0001:00003000       @WStrAsg
 0001:00003048       @System@@LStrCmp$qqrv
 0001:000030EC       @System@@LStrAddRef$qqrpv
 0001:000030FC       @System@@LStrToPChar$qqrx17System@AnsiString
 0001:0000315C       @System@@LStrCopy$qqrv
 0001:00003184       @WStrFromWArray
 0001:0000319C       @System@@LStrDelete$qqrv
 0001:000031B0       @WStrToString
 0001:000031E4       @System@@LStrSetLength$qqrv
 0001:00003250       @System@@WriteLString$qqrr15System@TTextRecx17System@AnsiStringi
 0001:00003260       @WStrCmp
 0001:00003270       @System@@WStrClr$qqrpv
 0001:00003284       @WStrOfWChar
 0001:00003288       @System@@WStrArrayClr$qqrpvi
 0001:000032AC       @System@@InitializeRecord$qqrpvt1
 0001:000032D8       SetVariantManager
 0001:000032DC       @System@@InitializeArray$qqrpvt1ui
 0001:000032F4       @_llmul
 0001:0000333C       @_lldiv
 0001:00003370       @System@@FinalizeRecord$qqrpvt1
 0001:000033A4       @_llumod
 0001:000033BC       @System@@FinalizeArray$qqrpvt1ui
 0001:000033E4       @_lludiv
 0001:000034B0       unknown_libname_1
 0001:000034D4       @System@@_lldiv$qqrv
 0001:00003550       @System@@_llmod$qqrv
 0001:000035C8       @DynArraySetLength
 0001:000035CC       @System@@DynArrayClear$qqrrpvpv
 0001:00003604       NotifyModuleUnload
 0001:00003820       ModuleName
 0001:00003830       ProcName
 0001:00003A74       SubKey
 0001:00003A90       aSoftwareBorl_1
 0001:00003AB0       ValueName
 0001:00003B90       @System@@IntfClear$qqrr45System@%DelphiInterface$t17System@IInterface%
 0001:00003C74       @System@Finalization$qqrv
 0001:00003CC8       @System@initialization$qqrv
 0001:00003D08       RegDeleteKey
 0001:00003D48       RegQueryInfoKey
 0001:00003D70       RegSetValueEx
 0001:00003D9C       j_GetModuleHandleA_0
 0001:00003DA4       j_LocalAlloc_0
 0001:00003DAC       j_TlsGetValue
 0001:00003DB4       j_TlsSetValue
 0001:00003DD0       InitThreadTLS
 0001:00003E14       @GetTls
 0001:00003F14       j_CloseHandle
 0001:00003F1C       j_CreateDirectoryA
 0001:00003F24       j_CreateFileA
 0001:00003F2C       j_EnumCalendarInfoA
 0001:00003F34       j_FileTimeToDosDateTime
 0001:00003F3C       j_FileTimeToLocalFileTime
 0001:00003F44       j_FindClose_0
 0001:00003F4C       j_FindFirstFileA_0
 0001:00003F54       j_FindNextFileA
 0001:00003F5C       j_FormatMessageA
 0001:00003F64       j_GetACP
 0001:00003F6C       j_GetCPInfo
 0001:00003F74       j_GetDiskFreeSpaceA
 0001:00003F7C       j_GetFileAttributesA
 0001:00003F84       j_GetFullPathNameA
 0001:00003F8C       j_GetLastError
 0001:00003F94       j_GetLocaleInfoA_0
 0001:00003F9C       j_GetModuleFileNameA_0
 0001:00003FA4       j_GetModuleHandleA_1
 0001:00003FAC       j_GetProcAddress_0
 0001:00003FB4       j_GetStdHandle_0
 0001:00003FBC       j_GetStringTypeA
 0001:00003FC4       j_GetThreadLocale_0
 0001:00003FCC       j_GetVersionExA
 0001:00003FD4       j_ReadFile
 0001:00003FDC       j_SetFilePointer
 0001:00003FE4       j_VirtualQuery
 0001:00003FEC       j_WriteFile_0
 0001:00003FF4       j_CharNextA_0
 0001:00003FFC       j_CharToOemA
 0001:00004004       j_GetSystemMetrics
 0001:0000400C       j_LoadStringA_0
 0001:00004014       j_MessageBoxA_0
 0001:00004588       aEinterrorlRu@
 0001:000045E0       aEdivbyzeror8v@
 0001:00004638       aErangeerrorrv@
 0001:000046EC       aEmatherrorrdw@
 0001:00004744       aEinvalidoprW@
 0001:000047F4       aEoverflowlLx@
 0001:00004A18       aEprivilegerpz@
 0001:00004ACC       aEcontrolcl@
 0001:00004D00       unknown_libname_2
 0001:00004D24       @Sysutils@CompareText$qqrx17System@AnsiStringt1
 0001:00004D78       @Sysutils@SameText$qqrx17System@AnsiStringt1
 0001:00004D9C       @Sysutils@TrimRight$qqrx17System@AnsiString
 0001:00004EE8       @Sysutils@IntToHex$qqrii
 0001:00004F10       @Sysutils@IntToHex$qqrji
 0001:00004F38       FileIsReadOnly
 0001:00004F40       @Sysutils@StrToIntDef$qqrx17System@AnsiStringi
 0001:00004F70       @Sysutils@FileOpen$qqrx17System@AnsiStringui
 0001:00004F7C       ExpandFileName
 0001:00004FB8       ExpandFileNameCase
 0001:00004FC8       @Sysutils@FileCreate$qqrx17System@AnsiString
 0001:00005018       @Sysutils@FileWrite$qqripxvui
 0001:00005044       @Sysutils@FileSeek$qqrixji
 0001:000050E8       @Sysutils@FindFirst$qqrx17System@AnsiStringir19Sysutils@TSearchRec
 0001:00005138       @Sysutils@FindNext$qqrr19Sysutils@TSearchRec
 0001:0000515C       @Sysutils@FindClose$qqrr19Sysutils@TSearchRec
 0001:000051F8       @Sysutils@ChangeFileExt$qqrx17System@AnsiStringt1
 0001:0000528C       @Sysutils@ExtractFilePath$qqrx17System@AnsiString
 0001:000052C0       @Sysutils@ExtractFileName$qqrx17System@AnsiString
 0001:000052F8       @Sysutils@ExpandFileName$qqrx17System@AnsiString
 0001:000053A8       @Sysutils@CreateDir$qqrx17System@AnsiString
 0001:000053C4       @Sysutils@StrLen$qqrpxc
 0001:000053EC       @Sysutils@StrLCopy$qqrpcpxcui
 0001:00005420       @Sysutils@StrLIComp$qqrpxct1ui
 0001:000054F4       @Strhlpr@AnsiFree$qqrr17System@AnsiString
 0001:00005500       @Sysutils@FormatBuf$qqrpvuipxvuipx14System@TVarRecxi
 0001:000059D0       @Sysutils@FloatToText$qqrpcpxv20Sysutils@TFloatValue21Sysutils@TFloatFormatii
 0001:00005CA4       @Sysutils@FloatToDecimal$qqrr18Sysutils@TFloatRecpxv20Sysutils@TFloatValueii
 0001:00005ED0       @Sysutils@SysErrorMessage$qqri
 0001:00005F1C       @Sysutils@GetLocaleStr$qqriix17System@AnsiString
 0001:00005F68       @Sysutils@GetLocaleChar$qqriic
 0001:000060F0       CalInfoEnumProc
 0001:00006448       aYyyy
 0001:00006458       aEeee
 0001:00006460       aYy
 0001:00006610       @Sysutils@ShowException$qqrp14System@TObjectpv
 0001:000066D8       unknown_libname_3
 0001:00006714       @Sysutils@Exception@$bctr$qqrx17System@AnsiStringpx14System@TVarRecxi
 0001:00006794       @Sysutils@Exception@$bctr$qqrp20System@TResStringRec
 0001:00006864       @Sysutils@EHeapException@FreeInstance$qqrv
 0001:00006A3C       unknown_libname_4
 0001:00006D94       LCIDToCodePage
 0001:00006E08       InitLeadBytes
 0001:00006F80       @Sysutils@ByteType$qqrx17System@AnsiStringi
 0001:00006FA4       @Sysutils@StrByteType$qqrpcui
 0001:00006FBC       @Sysutils@StrCharLength$qqrpxc
 0001:00006FDC       @Sysutils@CharLength$qqrx17System@AnsiStringi
 0001:00007018       @Sysutils@IsPathDelimiter$qqrx17System@AnsiStringi
 0001:0000704C       @Sysutils@IncludeTrailingPathDelimiter$qqrx17System@AnsiString
 0001:00007168       WrapText
 0001:00007354       @Sysutils@GetFormatSettings$qqrv
 0001:000074E8       FindCmdLineSwitch
 0001:00007548       PackageInfoTable
 0001:00007724       aKernel32_dll
 0001:00007734       aGetdiskfreespa
 0001:00007748       @Sysutils@FreeAndNil$qqrpv
 0001:00007A28       @Sysutils@Finalization$qqrv
 0001:00007BA8       @Sysutils@initialization$qqrv
 0001:000086E4       @Classes@TFileStream@$bctr$qqrx17System@AnsiStringusui
 0001:0000882C       @Classes@TFileStream@$bdtr$qqrv
 0001:00008870       @Classes@THandleStream@Write$qqrpxvi
 0001:00008880       @Classes@THandleStream@Seek$qqrxj19Classes@TSeekOrigin
 0001:000090E8       @Sysutils@DirectoryExists$qqrx17System@AnsiString
 0001:00009B4C       @Xmldom@Finalization$qqrv
 0001:0000A798       unknown_libname_5
 0001:0000A7A8       unknown_libname_6
 0001:0000BF0C       nullsub_1
 0001:0000E05F       nullsub_2
 0001:00022DCC       nullsub_3
 0001:0002CDAC       unknown_libname_7
 0001:0002CF44       start
 0001:0002E03E       aRsu
 0001:0002E053       aFxn@
 0001:0002E058       Caption
 0001:0002E060       Text
 0001:0002E090       TlsIndex
 0001:0002E0F8       dwDesiredAccess
 0001:0002E104       dwShareMode
 0001:0003D5B8       CodePage
 0001:0003D5C4       CriticalSection
 0001:0003D61C       hMem
 0001:0003D660       hModule
 0001:0003D738       Locale
 0002:000140A0       DeleteCriticalSection
 0002:000140A4       LeaveCriticalSection
 0002:000140A8       EnterCriticalSection
 0002:000140AC       InitializeCriticalSection
 0002:000140B0       VirtualFree
 0002:000140B4       VirtualAlloc
 0002:000140B8       LocalFree
 0002:000140BC       LocalAlloc
 0002:000140C0       GetVersion
 0002:000140C4       GetCurrentThreadId
 0002:000140C8       WideCharToMultiByte
 0002:000140CC       lstrlenA
 0002:000140D0       lstrcpynA
 0002:000140D4       LoadLibraryExA
 0002:000140D8       GetThreadLocale
 0002:000140DC       GetStartupInfoA
 0002:000140E0       GetProcAddress
 0002:000140E4       GetModuleHandleA
 0002:000140E8       GetModuleFileNameA
 0002:000140EC       GetLocaleInfoA
 0002:000140F0       GetLastError
 0002:000140F4       GetCommandLineA
 0002:000140F8       FreeLibrary
 0002:000140FC       FindFirstFileA
 0002:00014100       FindClose
 0002:00014104       ExitProcess
 0002:00014108       WriteFile
 0002:0001410C       UnhandledExceptionFilter
 0002:00014110       SetFilePointer
 0002:00014114       SetEndOfFile
 0002:00014118       RtlUnwind
 0002:0001411C       ReadFile
 0002:00014120       RaiseException
 0002:00014124       GetStdHandle
 0002:00014128       GetFileSize
 0002:0001412C       GetFileType
 0002:00014130       CreateFileA
 0002:00014134       CloseHandle
 0002:0001413C       GetKeyboardType
 0002:00014140       LoadStringA
 0002:00014144       MessageBoxA
 0002:00014148       CharNextA
 0002:00014150       RegQueryValueExA
 0002:00014154       RegOpenKeyExA
 0002:00014158       RegCloseKey
 0002:00014160       SysFreeString
 0002:00014168       TlsSetValue
 0002:0001416C       TlsGetValue
 0002:00014180       VirtualQuery
 0002:0001418C       GetVersionExA
 0002:00014194       GetStringTypeA
 0002:000141B0       GetFullPathNameA
 0002:000141B4       GetFileAttributesA
 0002:000141B8       GetDiskFreeSpaceA
 0002:000141BC       GetCPInfo
 0002:000141C0       GetACP
 0002:000141C4       FormatMessageA
 0002:000141C8       FindNextFileA
 0002:000141D4       FileTimeToLocalFileTime
 0002:000141D8       FileTimeToDosDateTime
 0002:000141DC       EnumCalendarInfoA
 0002:000141E4       CreateDirectoryA
 0002:000141F8       GetSystemMetrics
 0002:00014200       CharToOemA
 0002:00019148       aCannotCreateFi
 0002:000191D4       aNovemberDecemb
 0002:00019978       aOutOfMemory
 0002:0001CA88       TlsDirectory
 0002:0001CA8C       TlsEnd_ptr
 0002:0001CA90       TlsIndex_ptr
 0002:0001CA94       TlsCallbacks_ptr
 0002:0001CA98       TlsSizeOfZeroFill
 0002:0001CA9C       TlsCharacteristics
 0002:0001CAA0       TlsStart
 0002:0001CAA8       TlsEnd
 0003:000010B0       aEletecriticals
 0003:000010C8       aEavecriticalse
 0003:000010DE       aEntercriticals
 0003:000010F5       aInitializecrit
 0003:00001154       aGetcurrentthre
 0003:00001169       aWidechartomult
 0003:00001180       aStrlena
 0003:0000118C       aTrcpyna
 0003:00001198       aAdlibraryexa
 0003:000011A8       aEtthreadlocale
 0003:000011B9       aGetstartupinfo
 0003:000011CC       aEtprocaddress
 0003:000011DC       aGetmodulehandl
 0003:000011F0       aEtmodulefilena
 0003:00001204       aGetlocaleinfoa
 0003:00001215       aGetlasterror
 0003:00001224       aGetcommandline
 0003:00001238       aEelibrary
 0003:00001244       aFindfirstfilea
 0003:00001255       aFindclose
 0003:00001261       aExitprocess
 0003:00001270       aRitefile
 0003:0000127C       aNhandledexcept
 0003:00001298       aTfilepointer
 0003:000012A8       aEtendoffile
 0003:000012B8       aLunwind
 0003:000012C4       aAdfile
 0003:000012CD       aRaiseexception
 0003:000012E0       aTstdhandle
 0003:000012ED       aGetfilesize
 0003:000012FC       aEtfiletype
 0003:00001307       aI
 0003:00001309       aCreatefilea
 0003:00001315       aS
 0003:00001317       aClosehandle
 0003:00001323       aUser32_dll
 0003:00001330       aGetkeyboardtyp
 0003:00001344       aAdstringa
 0003:00001350       aMessageboxa
 0003:0000135E       aCharnexta
 0003:00001368       aAdvapi32_dll
 0003:00001378       aEgqueryvalueex
 0003:0000138C       aGopenkeyexa
 0003:0000139C       aGclosekey
 0003:000013A6       aOleaut32_dll
 0003:000013B5       aSysfreestring
 0003:000013C3       aKernel32_dll_0
 0003:000013D4       aSsetvalue
 0003:000013E0       aTlsgetvalue
 0003:000013F0       aCalalloc
 0003:000013FC       aEtmodulehandle
 0003:00001410       aItefile
 0003:0000141C       aRtualquery
 0003:00001429       aSetfilepointer
 0003:0000143C       aAdfile_0
 0003:00001445       aGetversionexa
 0003:00001455       aGetthreadlocal
 0003:00001468       aEtstringtypea
 0003:00001478       aGetstdhandle
 0003:00001488       aEtprocaddres_0
 0003:00001498       aGetmodulehan_0
 0003:000014AC       aEtmodulefile_0
 0003:000014C0       aGetlocaleinf_0
 0003:000014D1       aGetlasterror_0
 0003:000014E0       aGetfullpathnam
 0003:000014F4       aEtfileattribut
 0003:00001508       aGetdiskfrees_0
 0003:0000151C       aGetcpinfo
 0003:00001528       aGetacp
 0003:00001531       aFormatmessagea
 0003:00001544       aNdnextfilea
 0003:00001554       aNdfirstfilea
 0003:00001564       aIndclose
 0003:00001570       aIletimetolocal
 0003:00001589       aFiletimetodosd
 0003:000015A1       aEnumcalendarin
 0003:000015B3       aI_0
 0003:000015B5       aCreatefilea_0
 0003:000015C3       aCreatedirector
 0003:000015D4       aS_0
 0003:000015D6       aClosehandle_0
 0003:000015E2       aUser32_dll_0
 0003:000015F0       aEssageboxa

Program entry point at 0001:0002CF44
